target datalayout = "e-m:e-p270:32:32-p271:32:32-p272:64:64-i64:64-i128:128-f80:128-n8:16:32:64-S128"
target triple = "x86_64-pc-linux-gnu"

%"struct.folly::chrono::(anonymous namespace)::VdsoInitializer" = type { ptr }
%struct.timespec = type { i64, i64 }
%"class.std::chrono::duration" = type { i64 }
%"class.std::chrono::duration.0" = type { i64 }

$_ZNSt6chronoplIlSt5ratioILl1ELl1EElS1_ILl1ELl1000000000EEEENSt11common_typeIJNS_8durationIT_T0_EENS5_IT1_T2_EEEE4typeERKS8_RKSB_ = comdat any

$_ZNSt6chrono8durationIlSt5ratioILl1ELl1EEEC2IlvEERKT_ = comdat any

$_ZNSt6chrono8durationIlSt5ratioILl1ELl1000000000EEEC2IlvEERKT_ = comdat any

$_ZNKSt6chrono8durationIlSt5ratioILl1ELl1000000000EEE5countEv = comdat any

$_ZNSt6chrono8durationIlSt5ratioILl1ELl1000000000EEEC2IlS1_ILl1ELl1EEvEERKNS0_IT_T0_EE = comdat any

$_ZNSt6chrono13duration_castINS_8durationIlSt5ratioILl1ELl1000000000EEEElS2_ILl1ELl1EEEENSt9enable_ifIXsr13__is_durationIT_EE5valueES7_E4typeERKNS1_IT0_T1_EE = comdat any

$_ZNSt6chrono20__duration_cast_implINS_8durationIlSt5ratioILl1ELl1000000000EEEES2_ILl1000000000ELl1EElLb0ELb1EE6__castIlS2_ILl1ELl1EEEES4_RKNS1_IT_T0_EE = comdat any

$_ZNKSt6chrono8durationIlSt5ratioILl1ELl1EEE5countEv = comdat any

@_ZN5folly6chrono13clock_gettimeE = global ptr @clock_gettime, align 8
@_ZN5folly6chrono16clock_gettime_nsE = global ptr @_ZN5folly6chronoL25clock_gettime_ns_fallbackEi, align 8
@_ZN5folly6chrono12_GLOBAL__N_116vdso_initializerE = internal global %"struct.folly::chrono::(anonymous namespace)::VdsoInitializer" zeroinitializer, align 8
@__dso_handle = external hidden global i8
@.str = private unnamed_addr constant [16 x i8] c"linux-vdso.so.1\00", align 1
@.str.1 = private unnamed_addr constant [21 x i8] c"__vdso_clock_gettime\00", align 1
@.str.2 = private unnamed_addr constant [24 x i8] c"__vdso_clock_gettime_ns\00", align 1
@llvm.global_ctors = appending global [1 x { i32, ptr, ptr }] [{ i32, ptr, ptr } { i32 65535, ptr @_GLOBAL__sub_I_ClockGettimeWrappers.cpp, ptr null }]

; Function Attrs: nounwind
declare i32 @clock_gettime(i32 noundef, ptr noundef) #0

; Function Attrs: mustprogress uwtable
define internal noundef i64 @_ZN5folly6chronoL25clock_gettime_ns_fallbackEi(i32 noundef %0) #1 {
  %2 = alloca i64, align 8
  %3 = alloca i32, align 4
  %4 = alloca %struct.timespec, align 8
  %5 = alloca i32, align 4
  %6 = alloca i32, align 4
  %7 = alloca %"class.std::chrono::duration", align 8
  %8 = alloca %"class.std::chrono::duration.0", align 8
  %9 = alloca %"class.std::chrono::duration", align 8
  store i32 %0, ptr %3, align 4, !tbaa !7
  call void @llvm.lifetime.start.p0(i64 16, ptr %4) #7
  call void @llvm.lifetime.start.p0(i64 4, ptr %5) #7
  %10 = load ptr, ptr @_ZN5folly6chrono13clock_gettimeE, align 8, !tbaa !11
  %11 = load i32, ptr %3, align 4, !tbaa !7
  %12 = call noundef i32 %10(i32 noundef %11, ptr noundef %4)
  store i32 %12, ptr %5, align 4, !tbaa !7
  %13 = load i32, ptr %5, align 4, !tbaa !7
  %14 = icmp ne i32 %13, 0
  %15 = zext i1 %14 to i64
  %16 = call i64 @llvm.expect.i64(i64 %15, i64 0)
  %17 = icmp ne i64 %16, 0
  br i1 %17, label %18, label %19

18:                                               ; preds = %1
  store i64 -1, ptr %2, align 8
  store i32 1, ptr %6, align 4
  br label %25

19:                                               ; preds = %1
  call void @llvm.lifetime.start.p0(i64 8, ptr %7) #7
  call void @llvm.lifetime.start.p0(i64 8, ptr %8) #7
  %20 = getelementptr inbounds nuw %struct.timespec, ptr %4, i32 0, i32 0
  call void @_ZNSt6chrono8durationIlSt5ratioILl1ELl1EEEC2IlvEERKT_(ptr noundef nonnull align 8 dereferenceable(8) %8, ptr noundef nonnull align 8 dereferenceable(8) %20)
  call void @llvm.lifetime.start.p0(i64 8, ptr %9) #7
  %21 = getelementptr inbounds nuw %struct.timespec, ptr %4, i32 0, i32 1
  call void @_ZNSt6chrono8durationIlSt5ratioILl1ELl1000000000EEEC2IlvEERKT_(ptr noundef nonnull align 8 dereferenceable(8) %9, ptr noundef nonnull align 8 dereferenceable(8) %21)
  %22 = call i64 @_ZNSt6chronoplIlSt5ratioILl1ELl1EElS1_ILl1ELl1000000000EEEENSt11common_typeIJNS_8durationIT_T0_EENS5_IT1_T2_EEEE4typeERKS8_RKSB_(ptr noundef nonnull align 8 dereferenceable(8) %8, ptr noundef nonnull align 8 dereferenceable(8) %9)
  %23 = getelementptr inbounds nuw %"class.std::chrono::duration", ptr %7, i32 0, i32 0
  store i64 %22, ptr %23, align 8
  call void @llvm.lifetime.end.p0(i64 8, ptr %9) #7
  call void @llvm.lifetime.end.p0(i64 8, ptr %8) #7
  %24 = call noundef i64 @_ZNKSt6chrono8durationIlSt5ratioILl1ELl1000000000EEE5countEv(ptr noundef nonnull align 8 dereferenceable(8) %7)
  store i64 %24, ptr %2, align 8
  store i32 1, ptr %6, align 4
  call void @llvm.lifetime.end.p0(i64 8, ptr %7) #7
  br label %25

25:                                               ; preds = %19, %18
  call void @llvm.lifetime.end.p0(i64 4, ptr %5) #7
  call void @llvm.lifetime.end.p0(i64 16, ptr %4) #7
  %26 = load i64, ptr %2, align 8
  ret i64 %26
}

; Function Attrs: nocallback nofree nosync nounwind willreturn memory(argmem: readwrite)
declare void @llvm.lifetime.start.p0(i64 immarg, ptr captures(none)) #2

; Function Attrs: nocallback nofree nosync nounwind willreturn memory(none)
declare i64 @llvm.expect.i64(i64, i64) #3

; Function Attrs: mustprogress uwtable
define linkonce_odr i64 @_ZNSt6chronoplIlSt5ratioILl1ELl1EElS1_ILl1ELl1000000000EEEENSt11common_typeIJNS_8durationIT_T0_EENS5_IT1_T2_EEEE4typeERKS8_RKSB_(ptr noundef nonnull align 8 dereferenceable(8) %0, ptr noundef nonnull align 8 dereferenceable(8) %1) #1 comdat {
  %3 = alloca %"class.std::chrono::duration", align 8
  %4 = alloca ptr, align 8
  %5 = alloca ptr, align 8
  %6 = alloca i64, align 8
  %7 = alloca %"class.std::chrono::duration", align 8
  %8 = alloca %"class.std::chrono::duration", align 8
  store ptr %0, ptr %4, align 8, !tbaa !13
  store ptr %1, ptr %5, align 8, !tbaa !15
  call void @llvm.lifetime.start.p0(i64 8, ptr %6) #7
  call void @llvm.lifetime.start.p0(i64 8, ptr %7) #7
  %9 = load ptr, ptr %4, align 8, !tbaa !13
  call void @_ZNSt6chrono8durationIlSt5ratioILl1ELl1000000000EEEC2IlS1_ILl1ELl1EEvEERKNS0_IT_T0_EE(ptr noundef nonnull align 8 dereferenceable(8) %7, ptr noundef nonnull align 8 dereferenceable(8) %9)
  %10 = call noundef i64 @_ZNKSt6chrono8durationIlSt5ratioILl1ELl1000000000EEE5countEv(ptr noundef nonnull align 8 dereferenceable(8) %7)
  call void @llvm.lifetime.start.p0(i64 8, ptr %8) #7
  %11 = load ptr, ptr %5, align 8, !tbaa !15
  call void @llvm.memcpy.p0.p0.i64(ptr align 8 %8, ptr align 8 %11, i64 8, i1 false), !tbaa.struct !17
  %12 = call noundef i64 @_ZNKSt6chrono8durationIlSt5ratioILl1ELl1000000000EEE5countEv(ptr noundef nonnull align 8 dereferenceable(8) %8)
  %13 = add nsw i64 %10, %12
  store i64 %13, ptr %6, align 8, !tbaa !18
  call void @_ZNSt6chrono8durationIlSt5ratioILl1ELl1000000000EEEC2IlvEERKT_(ptr noundef nonnull align 8 dereferenceable(8) %3, ptr noundef nonnull align 8 dereferenceable(8) %6)
  call void @llvm.lifetime.end.p0(i64 8, ptr %8) #7
  call void @llvm.lifetime.end.p0(i64 8, ptr %7) #7
  call void @llvm.lifetime.end.p0(i64 8, ptr %6) #7
  %14 = getelementptr inbounds nuw %"class.std::chrono::duration", ptr %3, i32 0, i32 0
  %15 = load i64, ptr %14, align 8
  ret i64 %15
}

; Function Attrs: mustprogress nounwind uwtable
define linkonce_odr void @_ZNSt6chrono8durationIlSt5ratioILl1ELl1EEEC2IlvEERKT_(ptr noundef nonnull align 8 dereferenceable(8) %0, ptr noundef nonnull align 8 dereferenceable(8) %1) unnamed_addr #4 comdat align 2 {
  %3 = alloca ptr, align 8
  %4 = alloca ptr, align 8
  store ptr %0, ptr %3, align 8, !tbaa !13
  store ptr %1, ptr %4, align 8, !tbaa !20
  %5 = load ptr, ptr %3, align 8
  %6 = getelementptr inbounds nuw %"class.std::chrono::duration.0", ptr %5, i32 0, i32 0
  %7 = load ptr, ptr %4, align 8, !tbaa !20
  %8 = load i64, ptr %7, align 8, !tbaa !18
  store i64 %8, ptr %6, align 8, !tbaa !22
  ret void
}

; Function Attrs: mustprogress nounwind uwtable
define linkonce_odr void @_ZNSt6chrono8durationIlSt5ratioILl1ELl1000000000EEEC2IlvEERKT_(ptr noundef nonnull align 8 dereferenceable(8) %0, ptr noundef nonnull align 8 dereferenceable(8) %1) unnamed_addr #4 comdat align 2 {
  %3 = alloca ptr, align 8
  %4 = alloca ptr, align 8
  store ptr %0, ptr %3, align 8, !tbaa !15
  store ptr %1, ptr %4, align 8, !tbaa !20
  %5 = load ptr, ptr %3, align 8
  %6 = getelementptr inbounds nuw %"class.std::chrono::duration", ptr %5, i32 0, i32 0
  %7 = load ptr, ptr %4, align 8, !tbaa !20
  %8 = load i64, ptr %7, align 8, !tbaa !18
  store i64 %8, ptr %6, align 8, !tbaa !24
  ret void
}

; Function Attrs: nocallback nofree nosync nounwind willreturn memory(argmem: readwrite)
declare void @llvm.lifetime.end.p0(i64 immarg, ptr captures(none)) #2

; Function Attrs: mustprogress nounwind uwtable
define linkonce_odr noundef i64 @_ZNKSt6chrono8durationIlSt5ratioILl1ELl1000000000EEE5countEv(ptr noundef nonnull align 8 dereferenceable(8) %0) #4 comdat align 2 {
  %2 = alloca ptr, align 8
  store ptr %0, ptr %2, align 8, !tbaa !15
  %3 = load ptr, ptr %2, align 8
  %4 = getelementptr inbounds nuw %"class.std::chrono::duration", ptr %3, i32 0, i32 0
  %5 = load i64, ptr %4, align 8, !tbaa !24
  ret i64 %5
}

; Function Attrs: mustprogress uwtable
define linkonce_odr void @_ZNSt6chrono8durationIlSt5ratioILl1ELl1000000000EEEC2IlS1_ILl1ELl1EEvEERKNS0_IT_T0_EE(ptr noundef nonnull align 8 dereferenceable(8) %0, ptr noundef nonnull align 8 dereferenceable(8) %1) unnamed_addr #1 comdat align 2 {
  %3 = alloca ptr, align 8
  %4 = alloca ptr, align 8
  %5 = alloca %"class.std::chrono::duration", align 8
  store ptr %0, ptr %3, align 8, !tbaa !15
  store ptr %1, ptr %4, align 8, !tbaa !13
  %6 = load ptr, ptr %3, align 8
  %7 = getelementptr inbounds nuw %"class.std::chrono::duration", ptr %6, i32 0, i32 0
  call void @llvm.lifetime.start.p0(i64 8, ptr %5) #7
  %8 = load ptr, ptr %4, align 8, !tbaa !13
  %9 = call i64 @_ZNSt6chrono13duration_castINS_8durationIlSt5ratioILl1ELl1000000000EEEElS2_ILl1ELl1EEEENSt9enable_ifIXsr13__is_durationIT_EE5valueES7_E4typeERKNS1_IT0_T1_EE(ptr noundef nonnull align 8 dereferenceable(8) %8)
  %10 = getelementptr inbounds nuw %"class.std::chrono::duration", ptr %5, i32 0, i32 0
  store i64 %9, ptr %10, align 8
  %11 = call noundef i64 @_ZNKSt6chrono8durationIlSt5ratioILl1ELl1000000000EEE5countEv(ptr noundef nonnull align 8 dereferenceable(8) %5)
  call void @llvm.lifetime.end.p0(i64 8, ptr %5) #7
  store i64 %11, ptr %7, align 8, !tbaa !24
  ret void
}

; Function Attrs: nocallback nofree nounwind willreturn memory(argmem: readwrite)
declare void @llvm.memcpy.p0.p0.i64(ptr noalias writeonly captures(none), ptr noalias readonly captures(none), i64, i1 immarg) #5

; Function Attrs: mustprogress uwtable
define linkonce_odr i64 @_ZNSt6chrono13duration_castINS_8durationIlSt5ratioILl1ELl1000000000EEEElS2_ILl1ELl1EEEENSt9enable_ifIXsr13__is_durationIT_EE5valueES7_E4typeERKNS1_IT0_T1_EE(ptr noundef nonnull align 8 dereferenceable(8) %0) #1 comdat {
  %2 = alloca %"class.std::chrono::duration", align 8
  %3 = alloca ptr, align 8
  store ptr %0, ptr %3, align 8, !tbaa !13
  %4 = load ptr, ptr %3, align 8, !tbaa !13
  %5 = call i64 @_ZNSt6chrono20__duration_cast_implINS_8durationIlSt5ratioILl1ELl1000000000EEEES2_ILl1000000000ELl1EElLb0ELb1EE6__castIlS2_ILl1ELl1EEEES4_RKNS1_IT_T0_EE(ptr noundef nonnull align 8 dereferenceable(8) %4)
  %6 = getelementptr inbounds nuw %"class.std::chrono::duration", ptr %2, i32 0, i32 0
  store i64 %5, ptr %6, align 8
  %7 = getelementptr inbounds nuw %"class.std::chrono::duration", ptr %2, i32 0, i32 0
  %8 = load i64, ptr %7, align 8
  ret i64 %8
}

; Function Attrs: mustprogress uwtable
define linkonce_odr i64 @_ZNSt6chrono20__duration_cast_implINS_8durationIlSt5ratioILl1ELl1000000000EEEES2_ILl1000000000ELl1EElLb0ELb1EE6__castIlS2_ILl1ELl1EEEES4_RKNS1_IT_T0_EE(ptr noundef nonnull align 8 dereferenceable(8) %0) #1 comdat align 2 {
  %2 = alloca %"class.std::chrono::duration", align 8
  %3 = alloca ptr, align 8
  %4 = alloca i64, align 8
  store ptr %0, ptr %3, align 8, !tbaa !13
  call void @llvm.lifetime.start.p0(i64 8, ptr %4) #7
  %5 = load ptr, ptr %3, align 8, !tbaa !13
  %6 = call noundef i64 @_ZNKSt6chrono8durationIlSt5ratioILl1ELl1EEE5countEv(ptr noundef nonnull align 8 dereferenceable(8) %5)
  %7 = mul nsw i64 %6, 1000000000
  store i64 %7, ptr %4, align 8, !tbaa !18
  call void @_ZNSt6chrono8durationIlSt5ratioILl1ELl1000000000EEEC2IlvEERKT_(ptr noundef nonnull align 8 dereferenceable(8) %2, ptr noundef nonnull align 8 dereferenceable(8) %4)
  call void @llvm.lifetime.end.p0(i64 8, ptr %4) #7
  %8 = getelementptr inbounds nuw %"class.std::chrono::duration", ptr %2, i32 0, i32 0
  %9 = load i64, ptr %8, align 8
  ret i64 %9
}

; Function Attrs: mustprogress nounwind uwtable
define linkonce_odr noundef i64 @_ZNKSt6chrono8durationIlSt5ratioILl1ELl1EEE5countEv(ptr noundef nonnull align 8 dereferenceable(8) %0) #4 comdat align 2 {
  %2 = alloca ptr, align 8
  store ptr %0, ptr %2, align 8, !tbaa !13
  %3 = load ptr, ptr %2, align 8
  %4 = getelementptr inbounds nuw %"class.std::chrono::duration.0", ptr %3, i32 0, i32 0
  %5 = load i64, ptr %4, align 8, !tbaa !22
  ret i64 %5
}

; Function Attrs: uwtable
define internal void @__cxx_global_var_init() #6 section ".text.startup" {
  call void @_ZN5folly6chrono12_GLOBAL__N_115VdsoInitializerC2Ev(ptr noundef nonnull align 8 dereferenceable(8) @_ZN5folly6chrono12_GLOBAL__N_116vdso_initializerE)
  %1 = call i32 @__cxa_atexit(ptr @_ZN5folly6chrono12_GLOBAL__N_115VdsoInitializerD2Ev, ptr @_ZN5folly6chrono12_GLOBAL__N_116vdso_initializerE, ptr @__dso_handle) #7
  ret void
}

; Function Attrs: mustprogress nounwind uwtable
define internal void @_ZN5folly6chrono12_GLOBAL__N_115VdsoInitializerC2Ev(ptr noundef nonnull align 8 dereferenceable(8) %0) unnamed_addr #4 align 2 {
  %2 = alloca ptr, align 8
  %3 = alloca ptr, align 8
  store ptr %0, ptr %2, align 8, !tbaa !26
  %4 = load ptr, ptr %2, align 8
  %5 = call ptr @dlopen(ptr noundef @.str, i32 noundef 5) #7
  %6 = getelementptr inbounds nuw %"struct.folly::chrono::(anonymous namespace)::VdsoInitializer", ptr %4, i32 0, i32 0
  store ptr %5, ptr %6, align 8, !tbaa !28
  %7 = getelementptr inbounds nuw %"struct.folly::chrono::(anonymous namespace)::VdsoInitializer", ptr %4, i32 0, i32 0
  %8 = load ptr, ptr %7, align 8, !tbaa !28
  %9 = icmp ne ptr %8, null
  br i1 %9, label %11, label %10

10:                                               ; preds = %1
  br label %28

11:                                               ; preds = %1
  call void @llvm.lifetime.start.p0(i64 8, ptr %3) #7
  %12 = getelementptr inbounds nuw %"struct.folly::chrono::(anonymous namespace)::VdsoInitializer", ptr %4, i32 0, i32 0
  %13 = load ptr, ptr %12, align 8, !tbaa !28
  %14 = call ptr @dlsym(ptr noundef %13, ptr noundef @.str.1) #7
  store ptr %14, ptr %3, align 8, !tbaa !11
  %15 = load ptr, ptr %3, align 8, !tbaa !11
  %16 = icmp ne ptr %15, null
  br i1 %16, label %17, label %19

17:                                               ; preds = %11
  %18 = load ptr, ptr %3, align 8, !tbaa !11
  store ptr %18, ptr @_ZN5folly6chrono13clock_gettimeE, align 8, !tbaa !11
  br label %19

19:                                               ; preds = %17, %11
  %20 = getelementptr inbounds nuw %"struct.folly::chrono::(anonymous namespace)::VdsoInitializer", ptr %4, i32 0, i32 0
  %21 = load ptr, ptr %20, align 8, !tbaa !28
  %22 = call ptr @dlsym(ptr noundef %21, ptr noundef @.str.2) #7
  store ptr %22, ptr %3, align 8, !tbaa !11
  %23 = load ptr, ptr %3, align 8, !tbaa !11
  %24 = icmp ne ptr %23, null
  br i1 %24, label %25, label %27

25:                                               ; preds = %19
  %26 = load ptr, ptr %3, align 8, !tbaa !11
  store ptr %26, ptr @_ZN5folly6chrono16clock_gettime_nsE, align 8, !tbaa !11
  br label %27

27:                                               ; preds = %25, %19
  call void @llvm.lifetime.end.p0(i64 8, ptr %3) #7
  br label %28

28:                                               ; preds = %27, %10
  ret void
}

; Function Attrs: mustprogress nounwind uwtable
define internal void @_ZN5folly6chrono12_GLOBAL__N_115VdsoInitializerD2Ev(ptr noundef nonnull align 8 dereferenceable(8) %0) unnamed_addr #4 align 2 {
  %2 = alloca ptr, align 8
  store ptr %0, ptr %2, align 8, !tbaa !26
  %3 = load ptr, ptr %2, align 8
  %4 = getelementptr inbounds nuw %"struct.folly::chrono::(anonymous namespace)::VdsoInitializer", ptr %3, i32 0, i32 0
  %5 = load ptr, ptr %4, align 8, !tbaa !28
  %6 = icmp ne ptr %5, null
  br i1 %6, label %7, label %11

7:                                                ; preds = %1
  store ptr @clock_gettime, ptr @_ZN5folly6chrono13clock_gettimeE, align 8, !tbaa !11
  store ptr @_ZN5folly6chronoL25clock_gettime_ns_fallbackEi, ptr @_ZN5folly6chrono16clock_gettime_nsE, align 8, !tbaa !11
  %8 = getelementptr inbounds nuw %"struct.folly::chrono::(anonymous namespace)::VdsoInitializer", ptr %3, i32 0, i32 0
  %9 = load ptr, ptr %8, align 8, !tbaa !28
  %10 = call i32 @dlclose(ptr noundef %9) #7
  br label %11

11:                                               ; preds = %7, %1
  ret void
}

; Function Attrs: nounwind
declare i32 @__cxa_atexit(ptr, ptr, ptr) #7

; Function Attrs: nounwind
declare ptr @dlopen(ptr noundef, i32 noundef) #0

; Function Attrs: nounwind
declare ptr @dlsym(ptr noundef, ptr noundef) #0

; Function Attrs: nounwind
declare i32 @dlclose(ptr noundef) #0

; Function Attrs: uwtable
define internal void @_GLOBAL__sub_I_ClockGettimeWrappers.cpp() #6 section ".text.startup" {
  call void @__cxx_global_var_init()
  ret void
}


!llvm.module.flags = !{!0, !1, !2, !3, !4, !5, !6}

!0 = !{i32 7, !"Dwarf Version", i32 5}
!1 = !{i32 2, !"Debug Info Version", i32 3}
!2 = !{i32 1, !"wchar_size", i32 4}
!3 = !{i32 7, !"openmp", i32 51}
!4 = !{i32 8, !"PIC Level", i32 2}
!5 = !{i32 7, !"uwtable", i32 2}
!6 = !{i32 7, !"debug-info-assignment-tracking", i1 true}
!7 = !{!8, !8, i64 0}
!8 = !{!"int", !9, i64 0}
!9 = !{!"omnipotent char", !10, i64 0}
!10 = !{!"Simple C++ TBAA"}
!11 = !{!12, !12, i64 0}
!12 = !{!"any pointer", !9, i64 0}
!13 = !{!14, !14, i64 0}
!14 = !{!"p1 _ZTSNSt6chrono8durationIlSt5ratioILl1ELl1EEEE", !12, i64 0}
!15 = !{!16, !16, i64 0}
!16 = !{!"p1 _ZTSNSt6chrono8durationIlSt5ratioILl1ELl1000000000EEEE", !12, i64 0}
!17 = !{i64 0, i64 8, !18}
!18 = !{!19, !19, i64 0}
!19 = !{!"long", !9, i64 0}
!20 = !{!21, !21, i64 0}
!21 = !{!"p1 long", !12, i64 0}
!22 = !{!23, !19, i64 0}
!23 = !{!"_ZTSNSt6chrono8durationIlSt5ratioILl1ELl1EEEE", !19, i64 0}
!24 = !{!25, !19, i64 0}
!25 = !{!"_ZTSNSt6chrono8durationIlSt5ratioILl1ELl1000000000EEEE", !19, i64 0}
!26 = !{!27, !27, i64 0}
!27 = !{!"p1 _ZTSN5folly6chrono12_GLOBAL__N_115VdsoInitializerE", !12, i64 0}
!28 = !{!29, !12, i64 0}
!29 = !{!"_ZTSN5folly6chrono12_GLOBAL__N_115VdsoInitializerE", !12, i64 0}
